; Function Attrs: mustprogress nofree norecurse nosync nounwind willreturn memory(write, argmem: readwrite, inaccessiblemem: none) uwtable
define internal noundef i32 @cpy_asc(i64 noundef %0, ptr noundef captures(none) %1) #6 {
  %3 = load ptr, ptr %1, align 8, !tbaa !22
  %4 = trunc i64 %0 to i8
  store i8 %4, ptr %3, align 1, !tbaa !23
  %5 = load ptr, ptr %1, align 8, !tbaa !22
  %6 = getelementptr inbounds nuw i8, ptr %5, i64 1
  store ptr %6, ptr %1, align 8, !tbaa !22
  ret i32 1
}